target datalayout = "e-m:e-p270:32:32-p271:32:32-p272:64:64-i64:64-i128:128-f80:128-n8:16:32:64-S128"
target triple = "x86_64-pc-linux-gnu"

%struct.hashEntry = type { ptr, ptr }

; Function Attrs: nounwind uwtable
define internal i32 @CorrelHash(ptr noundef %0, i32 noundef %1) #0 {
  %3 = alloca ptr, align 8
  %4 = alloca i32, align 4
  %5 = alloca ptr, align 8
  %6 = alloca i32, align 4
  store ptr %0, ptr %3, align 8
  store i32 %1, ptr %4, align 4
  store i32 0, ptr %6, align 4
  %7 = load ptr, ptr %3, align 8
  store ptr %7, ptr %5, align 8
  %8 = load ptr, ptr %5, align 8
  %9 = getelementptr inbounds %struct.hashEntry, ptr %8, i32 0, i32 0
  %10 = load ptr, ptr %9, align 8
  %11 = ptrtoint ptr %10 to i64
  %12 = trunc i64 %11 to i32
  %13 = mul nsw i32 %12, 997
  %14 = load ptr, ptr %5, align 8
  %15 = getelementptr inbounds %struct.hashEntry, ptr %14, i32 0, i32 1
  %16 = load ptr, ptr %15, align 8
  %17 = ptrtoint ptr %16 to i64
  %18 = trunc i64 %17 to i32
  %19 = add nsw i32 %13, %18
  store i32 %19, ptr %6, align 4
  %20 = load i32, ptr %6, align 4
  %21 = icmp slt i32 %20, 0
  br i1 %21, label %22, label %25

22:                                               ; preds = %2
  %23 = load i32, ptr %6, align 4
  %24 = sub nsw i32 0, %23
  br label %27

25:                                               ; preds = %2
  %26 = load i32, ptr %6, align 4
  br label %27

27:                                               ; preds = %25, %22
  %28 = phi i32 [ %24, %22 ], [ %26, %25 ]
  %29 = load i32, ptr %4, align 4
  %30 = srem i32 %28, %29
  ret i32 %30
}