; Function Attrs: mustprogress nofree norecurse nosync nounwind willreturn memory(argmem: read) uwtable
define internal range(i32 0, -2147483648) i32 @CorrelHash(ptr noundef readonly captures(none) %0, i32 noundef %1) #2 {
  %3 = load ptr, ptr %0, align 8
  %4 = ptrtoint ptr %3 to i64
  %5 = trunc i64 %4 to i32
  %6 = mul nsw i32 %5, 997
  %7 = getelementptr inbounds nuw i8, ptr %0, i64 8
  %8 = load ptr, ptr %7, align 8
  %9 = ptrtoint ptr %8 to i64
  %10 = trunc i64 %9 to i32
  %11 = add nsw i32 %6, %10
  %12 = tail call i32 @llvm.abs.i32(i32 %11, i1 true)
  %13 = srem i32 %12, %1
  ret i32 %13
}